(dp0
S'rollverify_1783943'
p1
(lp2
(F1482622159.71108
(lp3
S'1D10'
p4
a(lp5
S'3'
p6
aS'games'
p7
S''
p8
tp9
a(F1482610198.909817
(lp10
S'1D26'
p11
a(lp12
S'19'
p13
aS'games'
p14
g8
tp15
a(F1482459380.075081
(lp16
S'1D15'
p17
a(lp18
S'11'
p19
aS'games'
p20
g8
tp21
a(F1482456967.961002
(lp22
S'1D26'
p23
a(lp24
S'8'
p25
aS'games'
p26
g8
tp27
a(F1482456813.368894
(lp28
S'1D1m'
p29
a(lp30
S'448323'
p31
aS'games'
p32
g8
tp33
a(F1482450861.949092
(lp34
S'1D5'
p35
a(lp36
S'5'
p37
aS'games'
p38
g8
tp39
a(F1482450718.357081
(lp40
S'1D500k'
p41
a(lp42
S'44326'
p43
ag8
g8
tp44
a(F1482450594.873945
(lp45
S'1D6'
p46
a(lp47
S'2'
p48
aS'games'
p49
g8
tp50
a(F1482350273.209732
(lp51
S'1D11'
p52
a(lp53
S'6'
p54
aS'games'
p55
g8
tp56
a(F1482338644.09409
(lp57
S'1D2'
p58
a(lp59
S'1'
p60
aS'games'
p61
g8
tp62
a(F1482274367.891668
(lp63
S'1D5m'
p64
a(lp65
S'1973909'
p66
ag8
g8
tp67
a(F1482272793.448431
(lp68
S'1D1500k'
p69
a(lp70
S'668843'
p71
aS'games'
p72
g8
tp73
a(F1482209305.964236
(lp74
S'1D100k'
p75
a(lp76
S'98548'
p77
aS'games'
p78
g8
tp79
a(F1481951905.458233
(lp80
S'1D1'
p81
a(lp82
S'1'
p83
aS'clan'
p84
S'Redemption City'
p85
tp86
a(F1481951353.621935
(lp87
S'1D1'
p88
a(lp89
S'1'
p90
aS'clan'
p91
S'Redemption City'
p92
tp93
a(F1481871859.630917
(lp94
S'1D4'
p95
a(lp96
S'4'
p97
ag8
g8
tp98
asS'rollverify_1683689'
p99
(lp100
(F1482571042.134131
(lp101
S'1D500k'
p102
a(lp103
S'338162'
p104
aS'games'
p105
g8
tp106
asS'rollverify_2766694'
p107
(lp108
(F1482209377.865148
(lp109
S'1D123456'
p110
a(lp111
S'49121'
p112
aS'games'
p113
g8
tp114
asS'rollverify_113121'
p115
(lp116
(F1482627569.545809
(lp117
S'1D12'
p118
a(lp119
S'2'
p120
aS'games'
p121
g8
tp122
asS'rollverify_1321271'
p123
(lp124
(F1482642145.11852
(lp125
S'1D12'
p126
a(lp127
S'12'
p128
ag8
g8
tp129
a(F1482641898.298337
(lp130
S'1D30'
p131
a(lp132
S'19'
p133
aS'games'
p134
g8
tp135
a(F1482641097.079582
(lp136
S'1D20'
p137
a(lp138
S'1'
p139
aS'games'
p140
g8
tp141
asS'rollverify_627533'
p142
(lp143
(F1482631487.438648
(lp144
S'1D20'
p145
a(lp146
S'17'
p147
aS'games'
p148
g8
tp149
a(F1482630589.356571
(lp150
S'1D15'
p151
a(lp152
S'4'
p153
aS'games'
p154
g8
tp155
a(F1482626691.754008
(lp156
S'1D11'
p157
a(lp158
S'6'
p159
aS'games'
p160
g8
tp161
a(F1482624464.177105
(lp162
S'1D11'
p163
a(lp164
S'2'
p165
aS'games'
p166
g8
tp167
a(F1482611733.496468
(lp168
S'1D15'
p169
a(lp170
S'12'
p171
aS'games'
p172
g8
tp173
a(F1482606278.537003
(lp174
S'1D6m'
p175
a(lp176
S'4944977'
p177
aS'games'
p178
g8
tp179
asS'rollverify_2825953'
p180
(lp181
(F1482644285.908443
(lp182
S'1D10'
p183
a(lp184
S'8'
p185
aS'games'
p186
g8
tp187
asS'rollverify_2395735'
p188
(lp189
(F1482472105.882242
(lp190
S'1D10'
p191
a(lp192
S'4'
p193
aS'games'
p194
g8
tp195
asS'rollverify_2856298'
p196
(lp197
(F1482630337.575403
(lp198
S'1D6'
p199
a(lp200
S'2'
p201
ag8
g8
tp202
a(F1482627872.653764
(lp203
S'6S6'
p204
a(lp205
S'6'
p206
aS'5'
p207
aS'3'
p208
aS'1'
p209
aS'2'
p210
aS'4'
p211
aS'games'
p212
g8
tp213
a(F1482627857.126187
(lp214
S'6S6'
p215
a(lp216
S'1'
p217
aS'2'
p218
aS'6'
p219
aS'4'
p220
aS'3'
p221
aS'5'
p222
ag8
g8
tp223
a(F1482478758.690892
(lp224
S'1D25'
p225
a(lp226
S'7'
p227
aS'games'
p228
g8
tp229
a(F1482472254.748871
(lp230
S'1D2'
p231
a(lp232
S'1'
p233
aS'games'
p234
g8
tp235
a(F1482471930.679459
(lp236
S'1D10'
p237
a(lp238
S'8'
p239
aS'games'
p240
g8
tp241
a(F1482458743.153858
(lp242
S'1D5m'
p243
a(lp244
S'3515575'
p245
aS'games'
p246
g8
tp247
a(F1482439424.468646
(lp248
S'2D148k'
p249
a(lp250
S'142159'
p251
aS'games'
p252
g8
tp253
a(F1482012352.397114
(lp254
S'3S6'
p255
a(lp256
S'4'
p257
aS'1'
p258
aS'6'
p259
ag8
g8
tp260
a(F1482009593.84723
(lp261
S'2D6'
p262
a(lp263
S'4'
p264
aS'games'
p265
g8
tp266
a(F1482009568.07234
(lp267
S'1D10'
p268
a(lp269
S'5'
p270
ag8
g8
tp271
asS'rollverify_1244008'
p272
(lp273
(F1482458846.186042
(lp274
S'1D5m'
p275
a(lp276
S'678657'
p277
aS'games'
p278
g8
tp279
asS'rollverify_2838313'
p280
(lp281
(F1482606453.104151
(lp282
S'1D15'
p283
a(lp284
S'5'
p285
aS'games'
p286
g8
tp287
asS'rollverify_2821019'
p288
(lp289
(F1482570954.97987
(lp290
S'1D10'
p291
a(lp292
S'5'
p293
ag8
g8
tp294
asS'rollverify_1742409'
p295
(lp296
(F1482349682.959112
(lp297
S'1D150'
p298
a(lp299
S'54'
p300
aS'games'
p301
g8
tp302
asS'rollverify_2732184'
p303
(lp304
(F1482618642.091869
(lp305
S'1D400k'
p306
a(lp307
S'258612'
p308
aS'games'
p309
g8
tp310
asS'rollverify_2744698'
p311
(lp312
(F1482472008.24004
(lp313
S'1D10'
p314
a(lp315
S'1'
p316
aS'games'
p317
g8
tp318
as.